; Function Attrs: mustprogress nofree norecurse nosync nounwind memory(read, argmem: readwrite, inaccessiblemem: none) uwtable
define dso_local noundef zeroext i1 @_ZN4Json6Reader17readCStyleCommentEv(ptr nocapture noundef nonnull align 8 dereferenceable(269) %0) local_unnamed_addr #10 align 2 {
  %2 = getelementptr inbounds i8, ptr %0, i64 208
  %3 = getelementptr inbounds i8, ptr %0, i64 200
  %4 = load ptr, ptr %3, align 8
  %.promoted = load ptr, ptr %2, align 8
  %5 = getelementptr inbounds i8, ptr %.promoted, i64 1
  %6 = icmp ult ptr %5, %4
  br i1 %6, label %_ZN4Json6Reader11getNextCharEv.exit, label %._crit_edge

_ZN4Json6Reader11getNextCharEv.exit:              ; preds = %1, %_ZN4Json6Reader11getNextCharEv.exit.backedge
  %7 = phi ptr [ %.be, %_ZN4Json6Reader11getNextCharEv.exit.backedge ], [ %5, %1 ]
  %8 = phi ptr [ %7, %_ZN4Json6Reader11getNextCharEv.exit.backedge ], [ %.promoted, %1 ]
  store ptr %7, ptr %2, align 8
  %9 = load i8, ptr %8, align 1
  %10 = icmp eq i8 %9, 42
  br i1 %10, label %11, label %_ZN4Json6Reader11getNextCharEv.exit.thread

11:                                               ; preds = %_ZN4Json6Reader11getNextCharEv.exit
  %12 = load i8, ptr %7, align 1
  %13 = icmp ne i8 %12, 47
  %14 = getelementptr inbounds i8, ptr %7, i64 1
  %15 = icmp ult ptr %14, %4
  %or.cond = select i1 %13, i1 %15, i1 false
  br i1 %or.cond, label %_ZN4Json6Reader11getNextCharEv.exit.backedge, label %._crit_edge

_ZN4Json6Reader11getNextCharEv.exit.thread:       ; preds = %_ZN4Json6Reader11getNextCharEv.exit
  %.old = getelementptr inbounds i8, ptr %7, i64 1
  %.old9 = icmp ult ptr %.old, %4
  br i1 %.old9, label %_ZN4Json6Reader11getNextCharEv.exit.backedge, label %._crit_edge

_ZN4Json6Reader11getNextCharEv.exit.backedge:     ; preds = %_ZN4Json6Reader11getNextCharEv.exit.thread, %11
  %.be = phi ptr [ %.old, %_ZN4Json6Reader11getNextCharEv.exit.thread ], [ %14, %11 ]
  br label %_ZN4Json6Reader11getNextCharEv.exit, !llvm.loop !116

._crit_edge:                                      ; preds = %_ZN4Json6Reader11getNextCharEv.exit.thread, %11, %1
  %16 = phi ptr [ %.promoted, %1 ], [ %7, %11 ], [ %7, %_ZN4Json6Reader11getNextCharEv.exit.thread ]
  %17 = icmp eq ptr %16, %4
  br i1 %17, label %_ZN4Json6Reader11getNextCharEv.exit2, label %18

18:                                               ; preds = %._crit_edge
  %19 = getelementptr inbounds i8, ptr %16, i64 1
  store ptr %19, ptr %2, align 8
  %20 = load i8, ptr %16, align 1
  %21 = icmp eq i8 %20, 47
  br label %_ZN4Json6Reader11getNextCharEv.exit2

_ZN4Json6Reader11getNextCharEv.exit2:             ; preds = %._crit_edge, %18
  %.0.i1 = phi i1 [ %21, %18 ], [ false, %._crit_edge ]
  ret i1 %.0.i1
}